target datalayout = "e-m:e-p270:32:32-p271:32:32-p272:64:64-i64:64-i128:128-f80:128-n8:16:32:64-S128"
target triple = "x86_64-pc-linux-gnu"

%class.InterpreterOopMap = type { ptr, i32, i32, i16, i32, [4 x i64] }

; Function Attrs: mustprogress nounwind uwtable
define linkonce_odr hidden noundef i32 @_ZNK17InterpreterOopMap9mask_sizeEv(ptr noundef nonnull align 8 dereferenceable(56) %0) #1 comdat align 2 {
  %2 = alloca ptr, align 8
  store ptr %0, ptr %2, align 8
  %3 = load ptr, ptr %2, align 8
  %4 = getelementptr inbounds %class.InterpreterOopMap, ptr %3, i32 0, i32 1
  %5 = load i32, ptr %4, align 8
  ret i32 %5
}

; Function Attrs: mustprogress nounwind uwtable
define hidden void @_ZN16OopMapCacheEntry19deallocate_bit_maskEv(ptr noundef nonnull align 8 dereferenceable(64) %0) #1 align 2 {
  %2 = alloca ptr, align 8
  store ptr %0, ptr %2, align 8
  %3 = load ptr, ptr %2, align 8
  %4 = call noundef i32 @_ZNK17InterpreterOopMap9mask_sizeEv(ptr noundef nonnull align 8 dereferenceable(56) %3)
  %5 = icmp sgt i32 %4, 256
  br i1 %5, label %6, label %16

6:                                                ; preds = %1
  %7 = getelementptr inbounds %class.InterpreterOopMap, ptr %3, i32 0, i32 5
  %8 = getelementptr inbounds [4 x i64], ptr %7, i64 0, i64 0
  %9 = load i64, ptr %8, align 8
  %10 = icmp ne i64 %9, 0
  br i1 %10, label %11, label %16

11:                                               ; preds = %6
  %12 = getelementptr inbounds %class.InterpreterOopMap, ptr %3, i32 0, i32 5
  %13 = getelementptr inbounds [4 x i64], ptr %12, i64 0, i64 0
  %14 = load i64, ptr %13, align 8
  %15 = inttoptr i64 %14 to ptr
  call void @_Z8FreeHeapPv(ptr noundef %15)
  br label %16

16:                                               ; preds = %11, %6, %1
  ret void
}