; Function Attrs: mustprogress nounwind uwtable
define hidden void @_ZN16OopMapCacheEntry19deallocate_bit_maskEv(ptr nocapture noundef nonnull readonly align 8 dereferenceable(64) %0) local_unnamed_addr #0 align 2 {
  %2 = getelementptr inbounds i8, ptr %0, i64 8
  %3 = load i32, ptr %2, align 8
  %4 = icmp sgt i32 %3, 256
  br i1 %4, label %5, label %10

5:                                                ; preds = %1
  %6 = getelementptr inbounds i8, ptr %0, i64 24
  %7 = load i64, ptr %6, align 8
  %.not = icmp eq i64 %7, 0
  br i1 %.not, label %10, label %8

8:                                                ; preds = %5
  %9 = inttoptr i64 %7 to ptr
  tail call void @_Z8FreeHeapPv(ptr noundef nonnull %9) #17
  br label %10

10:                                               ; preds = %8, %5, %1
  ret void
}